ccopy_reg
_reconstructor
p0
(csklearn.linear_model.logistic
LogisticRegression
p1
c__builtin__
object
p2
Ntp3
Rp4
(dp5
S'warm_start'
p6
I00
sS'C'
p7
cnumpy.core.multiarray
scalar
p8
(cnumpy
dtype
p9
(S'f8'
p10
I0
I1
tp11
Rp12
(I3
S'<'
p13
NNNI-1
I-1
I0
tp14
bS'\xb5\xbab\xdb2.\x94@'
p15
tp16
Rp17
sS'n_jobs'
p18
NsS'verbose'
p19
I0
sS'fit_intercept'
p20
I01
sS'solver'
p21
S'warn'
p22
sS'classes_'
p23
cnumpy.core.multiarray
_reconstruct
p24
(cnumpy
ndarray
p25
(I0
tp26
S'b'
p27
tp28
Rp29
(I1
(I2
tp30
g9
(S'i8'
p31
I0
I1
tp32
Rp33
(I3
S'<'
p34
NNNI-1
I-1
I0
tp35
bI00
S'\x00\x00\x00\x00\x00\x00\x00\x00\x01\x00\x00\x00\x00\x00\x00\x00'
p36
tp37
bsS'n_iter_'
p38
g24
(g25
(I0
tp39
g27
tp40
Rp41
(I1
(I1
tp42
g9
(S'i4'
p43
I0
I1
tp44
Rp45
(I3
S'<'
p46
NNNI-1
I-1
I0
tp47
bI00
S'\x10\x00\x00\x00'
p48
tp49
bsS'intercept_scaling'
p50
I1
sS'penalty'
p51
S'l2'
p52
sS'multi_class'
p53
g22
sS'random_state'
p54
NsS'_sklearn_version'
p55
S'0.20.3'
p56
sS'dual'
p57
I00
sS'tol'
p58
F0.0001
sS'coef_'
p59
g24
(g25
(I0
tp60
g27
tp61
Rp62
(I1
(I1
I10
tp63
g12
I00
S'\xfe\n\xd2\x19\x0b\xf0\n@;h_\x7f\xe1\xb16@L\x1d\xf4R\xca\x8e2@\x00\x00\x00\x00\x00\x00\x00\x00\xd3\xcb\xda\x92\xce\x8b2@~\x92\xfa\xf1X\xddX@\x00@v\xef\x8c\xc6O@\xcd\xceX\xf5\xa0\xd84@\xb0:\xaa@\x80\x10e@\x1f%\x98e]\xc2m@'
p64
tp65
bsS'intercept_'
p66
g24
(g25
(I0
tp67
g27
tp68
Rp69
(I1
(I1
tp70
g12
I00
S'\x0e`>0\xac\xda\x08\xc0'
p71
tp72
bsS'max_iter'
p73
I100
sS'class_weight'
p74
Nsb.